; Function Attrs: mustprogress uwtable
define hidden void @_ZN7zstringC2EPKc(ptr noundef nonnull align 8 dereferenceable(80) %0, ptr noundef %1) unnamed_addr #3 align 2 personality ptr @__gxx_personality_v0 {
  %3 = alloca ptr, align 8
  %4 = alloca i32, align 4
  store ptr %1, ptr %3, align 8, !tbaa !3
  %5 = getelementptr inbounds nuw i8, ptr %0, i64 16
  store ptr %5, ptr %0, align 8, !tbaa !13
  %6 = getelementptr inbounds nuw i8, ptr %0, i64 8
  store i32 0, ptr %6, align 8, !tbaa !16
  %7 = getelementptr inbounds nuw i8, ptr %0, i64 12
  store i32 16, ptr %7, align 4, !tbaa !17
  %8 = load i8, ptr %1, align 1, !tbaa !8
  %.not23 = icmp eq i8 %8, 0
  br i1 %.not23, label %._crit_edge, label %.lr.ph

.lr.ph:                                           ; preds = %2, %63
  call void @llvm.lifetime.start.p0(i64 4, ptr nonnull %4) #20
  store i32 0, ptr %4, align 4, !tbaa !9
  %9 = invoke noundef zeroext i1 @_ZN7zstring14is_escape_charERPKcRj(ptr nonnull align 8 poison, ptr noundef nonnull align 8 dereferenceable(8) %3, ptr noundef nonnull align 4 dereferenceable(4) %4)
          to label %10 unwind label %33

10:                                               ; preds = %.lr.ph
  br i1 %9, label %11, label %35

11:                                               ; preds = %10
  %12 = load i32, ptr %6, align 8, !tbaa !16
  %13 = load i32, ptr %7, align 4, !tbaa !17
  %.not.i = icmp ult i32 %12, %13
  br i1 %.not.i, label %._crit_edge.i, label %14

._crit_edge.i:                                    ; preds = %11
  %.pre.i = load ptr, ptr %0, align 8, !tbaa !13
  br label %_ZN6bufferIjLb1ELj16EE9push_backERKj.exit

14:                                               ; preds = %11
  %15 = shl i32 %13, 1
  %16 = zext i32 %15 to i64
  %17 = shl nuw nsw i64 %16, 2
  %18 = invoke noalias noundef ptr @_ZN6memory8allocateEm(i64 noundef %17)
          to label %.noexc unwind label %33

.noexc:                                           ; preds = %14
  %19 = load i32, ptr %6, align 8, !tbaa !16
  %.not.i.i = icmp eq i32 %19, 0
  %.pre.i.i = load ptr, ptr %0, align 8, !tbaa !13
  br i1 %.not.i.i, label %._crit_edge.i.i, label %.lr.ph.i.i

.lr.ph.i.i:                                       ; preds = %.noexc
  %wide.trip.count.i.i = zext i32 %19 to i64
  br label %22

._crit_edge.i.i:                                  ; preds = %22, %.noexc
  %.not.i.i.i = icmp eq ptr %.pre.i.i, %5
  %20 = icmp eq ptr %.pre.i.i, null
  %or.cond.i.i.i = or i1 %.not.i.i.i, %20
  br i1 %or.cond.i.i.i, label %_ZN6bufferIjLb1ELj16EE6expandEv.exit.i, label %21

21:                                               ; preds = %._crit_edge.i.i
  invoke void @_ZN6memory10deallocateEPv(ptr noundef nonnull %.pre.i.i)
          to label %.noexc4 unwind label %33

.noexc4:                                          ; preds = %21
  %.pre2.pre.i = load i32, ptr %6, align 8, !tbaa !16
  br label %_ZN6bufferIjLb1ELj16EE6expandEv.exit.i

22:                                               ; preds = %22, %.lr.ph.i.i
  %indvars.iv.i.i = phi i64 [ 0, %.lr.ph.i.i ], [ %indvars.iv.next.i.i, %22 ]
  %23 = getelementptr inbounds nuw i32, ptr %18, i64 %indvars.iv.i.i
  %24 = getelementptr inbounds nuw i32, ptr %.pre.i.i, i64 %indvars.iv.i.i
  %25 = load i32, ptr %24, align 4, !tbaa !9
  store i32 %25, ptr %23, align 4, !tbaa !9
  %indvars.iv.next.i.i = add nuw nsw i64 %indvars.iv.i.i, 1
  %exitcond.not.i.i = icmp eq i64 %indvars.iv.next.i.i, %wide.trip.count.i.i
  br i1 %exitcond.not.i.i, label %._crit_edge.i.i, label %22, !llvm.loop !18

_ZN6bufferIjLb1ELj16EE6expandEv.exit.i:           ; preds = %.noexc4, %._crit_edge.i.i
  %.pre2.i = phi i32 [ %19, %._crit_edge.i.i ], [ %.pre2.pre.i, %.noexc4 ]
  store ptr %18, ptr %0, align 8, !tbaa !13
  store i32 %15, ptr %7, align 4, !tbaa !17
  br label %_ZN6bufferIjLb1ELj16EE9push_backERKj.exit

_ZN6bufferIjLb1ELj16EE9push_backERKj.exit:        ; preds = %._crit_edge.i, %_ZN6bufferIjLb1ELj16EE6expandEv.exit.i
  %26 = phi i32 [ %12, %._crit_edge.i ], [ %.pre2.i, %_ZN6bufferIjLb1ELj16EE6expandEv.exit.i ]
  %27 = phi ptr [ %.pre.i, %._crit_edge.i ], [ %18, %_ZN6bufferIjLb1ELj16EE6expandEv.exit.i ]
  %28 = zext i32 %26 to i64
  %29 = getelementptr inbounds nuw i32, ptr %27, i64 %28
  %30 = load i32, ptr %4, align 4, !tbaa !9
  store i32 %30, ptr %29, align 4, !tbaa !9
  %31 = load i32, ptr %6, align 8, !tbaa !16
  %32 = add i32 %31, 1
  store i32 %32, ptr %6, align 8, !tbaa !16
  %.pre = load ptr, ptr %3, align 8, !tbaa !3
  br label %63

33:                                               ; preds = %21, %14, %.lr.ph
  %34 = landingpad { ptr, i32 }
          cleanup
  br label %66

35:                                               ; preds = %10
  %36 = load ptr, ptr %3, align 8, !tbaa !3
  %37 = load i8, ptr %36, align 1, !tbaa !8
  %38 = zext i8 %37 to i32
  %39 = load i32, ptr %6, align 8, !tbaa !16
  %40 = load i32, ptr %7, align 4, !tbaa !17
  %.not.i5 = icmp ult i32 %39, %40
  br i1 %.not.i5, label %._crit_edge.i19, label %41

._crit_edge.i19:                                  ; preds = %35
  %.pre.i20 = load ptr, ptr %0, align 8, !tbaa !13
  br label %53

41:                                               ; preds = %35
  %42 = shl i32 %40, 1
  %43 = zext i32 %42 to i64
  %44 = shl nuw nsw i64 %43, 2
  %45 = invoke noalias noundef ptr @_ZN6memory8allocateEm(i64 noundef %44)
          to label %.noexc21 unwind label %61

.noexc21:                                         ; preds = %41
  %46 = load i32, ptr %6, align 8, !tbaa !16
  %.not.i.i6 = icmp eq i32 %46, 0
  %.pre.i.i7 = load ptr, ptr %0, align 8, !tbaa !13
  br i1 %.not.i.i6, label %._crit_edge.i.i13, label %.lr.ph.i.i8

.lr.ph.i.i8:                                      ; preds = %.noexc21
  %wide.trip.count.i.i9 = zext i32 %46 to i64
  br label %49

._crit_edge.i.i13:                                ; preds = %49, %.noexc21
  %.not.i.i.i14 = icmp eq ptr %.pre.i.i7, %5
  %47 = icmp eq ptr %.pre.i.i7, null
  %or.cond.i.i.i15 = or i1 %.not.i.i.i14, %47
  br i1 %or.cond.i.i.i15, label %_ZN6bufferIjLb1ELj16EE6expandEv.exit.i17, label %48

48:                                               ; preds = %._crit_edge.i.i13
  invoke void @_ZN6memory10deallocateEPv(ptr noundef nonnull %.pre.i.i7)
          to label %.noexc22 unwind label %61

.noexc22:                                         ; preds = %48
  %.pre2.pre.i16 = load i32, ptr %6, align 8, !tbaa !16
  br label %_ZN6bufferIjLb1ELj16EE6expandEv.exit.i17

49:                                               ; preds = %49, %.lr.ph.i.i8
  %indvars.iv.i.i10 = phi i64 [ 0, %.lr.ph.i.i8 ], [ %indvars.iv.next.i.i11, %49 ]
  %50 = getelementptr inbounds nuw i32, ptr %45, i64 %indvars.iv.i.i10
  %51 = getelementptr inbounds nuw i32, ptr %.pre.i.i7, i64 %indvars.iv.i.i10
  %52 = load i32, ptr %51, align 4, !tbaa !9
  store i32 %52, ptr %50, align 4, !tbaa !9
  %indvars.iv.next.i.i11 = add nuw nsw i64 %indvars.iv.i.i10, 1
  %exitcond.not.i.i12 = icmp eq i64 %indvars.iv.next.i.i11, %wide.trip.count.i.i9
  br i1 %exitcond.not.i.i12, label %._crit_edge.i.i13, label %49, !llvm.loop !18

_ZN6bufferIjLb1ELj16EE6expandEv.exit.i17:         ; preds = %.noexc22, %._crit_edge.i.i13
  %.pre2.i18 = phi i32 [ %46, %._crit_edge.i.i13 ], [ %.pre2.pre.i16, %.noexc22 ]
  store ptr %45, ptr %0, align 8, !tbaa !13
  store i32 %42, ptr %7, align 4, !tbaa !17
  br label %53

53:                                               ; preds = %_ZN6bufferIjLb1ELj16EE6expandEv.exit.i17, %._crit_edge.i19
  %54 = phi i32 [ %39, %._crit_edge.i19 ], [ %.pre2.i18, %_ZN6bufferIjLb1ELj16EE6expandEv.exit.i17 ]
  %55 = phi ptr [ %.pre.i20, %._crit_edge.i19 ], [ %45, %_ZN6bufferIjLb1ELj16EE6expandEv.exit.i17 ]
  %56 = zext i32 %54 to i64
  %57 = getelementptr inbounds nuw i32, ptr %55, i64 %56
  store i32 %38, ptr %57, align 4, !tbaa !9
  %58 = load i32, ptr %6, align 8, !tbaa !16
  %59 = add i32 %58, 1
  store i32 %59, ptr %6, align 8, !tbaa !16
  %60 = getelementptr inbounds nuw i8, ptr %36, i64 1
  store ptr %60, ptr %3, align 8, !tbaa !3
  br label %63

61:                                               ; preds = %48, %41
  %62 = landingpad { ptr, i32 }
          cleanup
  br label %66

63:                                               ; preds = %_ZN6bufferIjLb1ELj16EE9push_backERKj.exit, %53
  %64 = phi ptr [ %.pre, %_ZN6bufferIjLb1ELj16EE9push_backERKj.exit ], [ %60, %53 ]
  call void @llvm.lifetime.end.p0(i64 4, ptr nonnull %4) #20
  %65 = load i8, ptr %64, align 1, !tbaa !8
  %.not = icmp eq i8 %65, 0
  br i1 %.not, label %._crit_edge, label %.lr.ph, !llvm.loop !19

66:                                               ; preds = %61, %33
  %.pn = phi { ptr, i32 } [ %34, %33 ], [ %62, %61 ]
  call void @llvm.lifetime.end.p0(i64 4, ptr nonnull %4) #20
  tail call void @_ZN6bufferIjLb1ELj16EED2Ev(ptr noundef nonnull align 8 dereferenceable(80) %0) #20
  resume { ptr, i32 } %.pn

._crit_edge:                                      ; preds = %63, %2
  ret void
}